; ModuleID = '17/77.c'
source_filename = "17/77.c"
target datalayout = "e-m:e-p270:32:32-p271:32:32-p272:64:64-i64:64-f80:128-n8:16:32:64-S128"
target triple = "x86_64-pc-linux-gnu"

; Function Attrs: noinline nounwind uwtable
define dso_local i32 @main() #0 {
  %1 = alloca i32, align 4
  %2 = alloca [100 x [100 x i8]], align 16
  %3 = alloca [100 x [100 x i8]], align 16
  %4 = alloca i32, align 4
  %5 = alloca i32, align 4
  %6 = alloca i32, align 4
  %7 = alloca i32, align 4
  %8 = alloca i32, align 4
  %9 = alloca i32, align 4
  store i32 0, i32* %1, align 4
  store i32 0, i32* %4, align 4
  br label %10

10:                                               ; preds = %34, %0
  %11 = load i32, i32* %4, align 4
  %12 = icmp slt i32 %11, 100
  br i1 %12, label %13, label %37

13:                                               ; preds = %10
  store i32 0, i32* %5, align 4
  br label %14

14:                                               ; preds = %30, %13
  %15 = load i32, i32* %5, align 4
  %16 = icmp slt i32 %15, 100
  br i1 %16, label %17, label %33

17:                                               ; preds = %14
  %18 = load i32, i32* %4, align 4
  %19 = sext i32 %18 to i64
  %20 = getelementptr inbounds [100 x [100 x i8]], [100 x [100 x i8]]* %2, i64 0, i64 %19
  %21 = load i32, i32* %5, align 4
  %22 = sext i32 %21 to i64
  %23 = getelementptr inbounds [100 x i8], [100 x i8]* %20, i64 0, i64 %22
  store i8 0, i8* %23, align 1
  %24 = load i32, i32* %4, align 4
  %25 = sext i32 %24 to i64
  %26 = getelementptr inbounds [100 x [100 x i8]], [100 x [100 x i8]]* %3, i64 0, i64 %25
  %27 = load i32, i32* %5, align 4
  %28 = sext i32 %27 to i64
  %29 = getelementptr inbounds [100 x i8], [100 x i8]* %26, i64 0, i64 %28
  store i8 0, i8* %29, align 1
  br label %30

30:                                               ; preds = %17
  %31 = load i32, i32* %5, align 4
  %32 = add nsw i32 %31, 1
  store i32 %32, i32* %5, align 4
  br label %14

33:                                               ; preds = %14
  br label %34

34:                                               ; preds = %33
  %35 = load i32, i32* %4, align 4
  %36 = add nsw i32 %35, 1
  store i32 %36, i32* %4, align 4
  br label %10

37:                                               ; preds = %10
  store i32 0, i32* %7, align 4
  br label %38

38:                                               ; preds = %182, %37
  %39 = load i32, i32* %7, align 4
  %40 = icmp slt i32 %39, 100
  br i1 %40, label %41, label %185

41:                                               ; preds = %38
  %42 = load i32, i32* %7, align 4
  %43 = sext i32 %42 to i64
  %44 = getelementptr inbounds [100 x [100 x i8]], [100 x [100 x i8]]* %2, i64 0, i64 %43
  %45 = getelementptr inbounds [100 x i8], [100 x i8]* %44, i64 0, i64 0
  %46 = call i32 (i8*, ...) bitcast (i32 (...)* @gets to i32 (i8*, ...)*)(i8* %45)
  %47 = load i32, i32* %7, align 4
  %48 = sext i32 %47 to i64
  %49 = getelementptr inbounds [100 x [100 x i8]], [100 x [100 x i8]]* %3, i64 0, i64 %48
  %50 = getelementptr inbounds [100 x i8], [100 x i8]* %49, i64 0, i64 0
  %51 = load i32, i32* %7, align 4
  %52 = sext i32 %51 to i64
  %53 = getelementptr inbounds [100 x [100 x i8]], [100 x [100 x i8]]* %2, i64 0, i64 %52
  %54 = getelementptr inbounds [100 x i8], [100 x i8]* %53, i64 0, i64 0
  %55 = call i8* @strcpy(i8* %50, i8* %54) #4
  store i32 0, i32* %5, align 4
  br label %56

56:                                               ; preds = %121, %41
  %57 = load i32, i32* %5, align 4
  %58 = sext i32 %57 to i64
  %59 = load i32, i32* %7, align 4
  %60 = sext i32 %59 to i64
  %61 = getelementptr inbounds [100 x [100 x i8]], [100 x [100 x i8]]* %2, i64 0, i64 %60
  %62 = getelementptr inbounds [100 x i8], [100 x i8]* %61, i64 0, i64 0
  %63 = call i64 @strlen(i8* %62) #5
  %64 = add i64 %63, 1
  %65 = udiv i64 %64, 2
  %66 = icmp ult i64 %58, %65
  br i1 %66, label %67, label %124

67:                                               ; preds = %56
  store i32 0, i32* %4, align 4
  store i32 0, i32* %9, align 4
  store i32 0, i32* %8, align 4
  br label %68

68:                                               ; preds = %117, %67
  %69 = load i32, i32* %7, align 4
  %70 = sext i32 %69 to i64
  %71 = getelementptr inbounds [100 x [100 x i8]], [100 x [100 x i8]]* %3, i64 0, i64 %70
  %72 = load i32, i32* %4, align 4
  %73 = sext i32 %72 to i64
  %74 = getelementptr inbounds [100 x i8], [100 x i8]* %71, i64 0, i64 %73
  %75 = load i8, i8* %74, align 1
  %76 = sext i8 %75 to i32
  %77 = icmp ne i32 %76, 0
  br i1 %77, label %78, label %120

78:                                               ; preds = %68
  %79 = load i32, i32* %7, align 4
  %80 = sext i32 %79 to i64
  %81 = getelementptr inbounds [100 x [100 x i8]], [100 x [100 x i8]]* %3, i64 0, i64 %80
  %82 = load i32, i32* %4, align 4
  %83 = sext i32 %82 to i64
  %84 = getelementptr inbounds [100 x i8], [100 x i8]* %81, i64 0, i64 %83
  %85 = load i8, i8* %84, align 1
  %86 = sext i8 %85 to i32
  %87 = icmp eq i32 %86, 40
  br i1 %87, label %88, label %90

88:                                               ; preds = %78
  store i32 1, i32* %8, align 4
  %89 = load i32, i32* %4, align 4
  store i32 %89, i32* %9, align 4
  br label %90

90:                                               ; preds = %88, %78
  %91 = load i32, i32* %7, align 4
  %92 = sext i32 %91 to i64
  %93 = getelementptr inbounds [100 x [100 x i8]], [100 x [100 x i8]]* %3, i64 0, i64 %92
  %94 = load i32, i32* %4, align 4
  %95 = sext i32 %94 to i64
  %96 = getelementptr inbounds [100 x i8], [100 x i8]* %93, i64 0, i64 %95
  %97 = load i8, i8* %96, align 1
  %98 = sext i8 %97 to i32
  %99 = icmp eq i32 %98, 41
  br i1 %99, label %100, label %116

100:                                              ; preds = %90
  %101 = load i32, i32* %8, align 4
  %102 = icmp eq i32 %101, 1
  br i1 %102, label %103, label %116

103:                                              ; preds = %100
  %104 = load i32, i32* %7, align 4
  %105 = sext i32 %104 to i64
  %106 = getelementptr inbounds [100 x [100 x i8]], [100 x [100 x i8]]* %3, i64 0, i64 %105
  %107 = load i32, i32* %4, align 4
  %108 = sext i32 %107 to i64
  %109 = getelementptr inbounds [100 x i8], [100 x i8]* %106, i64 0, i64 %108
  store i8 48, i8* %109, align 1
  %110 = load i32, i32* %7, align 4
  %111 = sext i32 %110 to i64
  %112 = getelementptr inbounds [100 x [100 x i8]], [100 x [100 x i8]]* %3, i64 0, i64 %111
  %113 = load i32, i32* %9, align 4
  %114 = sext i32 %113 to i64
  %115 = getelementptr inbounds [100 x i8], [100 x i8]* %112, i64 0, i64 %114
  store i8 48, i8* %115, align 1
  br label %120

116:                                              ; preds = %100, %90
  br label %117

117:                                              ; preds = %116
  %118 = load i32, i32* %4, align 4
  %119 = add nsw i32 %118, 1
  store i32 %119, i32* %4, align 4
  br label %68

120:                                              ; preds = %103, %68
  br label %121

121:                                              ; preds = %120
  %122 = load i32, i32* %5, align 4
  %123 = add nsw i32 %122, 1
  store i32 %123, i32* %5, align 4
  br label %56

124:                                              ; preds = %56
  store i32 0, i32* %4, align 4
  br label %125

125:                                              ; preds = %178, %124
  %126 = load i32, i32* %7, align 4
  %127 = sext i32 %126 to i64
  %128 = getelementptr inbounds [100 x [100 x i8]], [100 x [100 x i8]]* %3, i64 0, i64 %127
  %129 = load i32, i32* %4, align 4
  %130 = sext i32 %129 to i64
  %131 = getelementptr inbounds [100 x i8], [100 x i8]* %128, i64 0, i64 %130
  %132 = load i8, i8* %131, align 1
  %133 = sext i8 %132 to i32
  %134 = icmp ne i32 %133, 0
  br i1 %134, label %135, label %181

135:                                              ; preds = %125
  %136 = load i32, i32* %7, align 4
  %137 = sext i32 %136 to i64
  %138 = getelementptr inbounds [100 x [100 x i8]], [100 x [100 x i8]]* %3, i64 0, i64 %137
  %139 = load i32, i32* %4, align 4
  %140 = sext i32 %139 to i64
  %141 = getelementptr inbounds [100 x i8], [100 x i8]* %138, i64 0, i64 %140
  %142 = load i8, i8* %141, align 1
  %143 = sext i8 %142 to i32
  %144 = icmp eq i32 %143, 40
  br i1 %144, label %145, label %152

145:                                              ; preds = %135
  %146 = load i32, i32* %7, align 4
  %147 = sext i32 %146 to i64
  %148 = getelementptr inbounds [100 x [100 x i8]], [100 x [100 x i8]]* %3, i64 0, i64 %147
  %149 = load i32, i32* %4, align 4
  %150 = sext i32 %149 to i64
  %151 = getelementptr inbounds [100 x i8], [100 x i8]* %148, i64 0, i64 %150
  store i8 36, i8* %151, align 1
  br label %177

152:                                              ; preds = %135
  %153 = load i32, i32* %7, align 4
  %154 = sext i32 %153 to i64
  %155 = getelementptr inbounds [100 x [100 x i8]], [100 x [100 x i8]]* %3, i64 0, i64 %154
  %156 = load i32, i32* %4, align 4
  %157 = sext i32 %156 to i64
  %158 = getelementptr inbounds [100 x i8], [100 x i8]* %155, i64 0, i64 %157
  %159 = load i8, i8* %158, align 1
  %160 = sext i8 %159 to i32
  %161 = icmp eq i32 %160, 41
  br i1 %161, label %162, label %169

162:                                              ; preds = %152
  %163 = load i32, i32* %7, align 4
  %164 = sext i32 %163 to i64
  %165 = getelementptr inbounds [100 x [100 x i8]], [100 x [100 x i8]]* %3, i64 0, i64 %164
  %166 = load i32, i32* %4, align 4
  %167 = sext i32 %166 to i64
  %168 = getelementptr inbounds [100 x i8], [100 x i8]* %165, i64 0, i64 %167
  store i8 63, i8* %168, align 1
  br label %176

169:                                              ; preds = %152
  %170 = load i32, i32* %7, align 4
  %171 = sext i32 %170 to i64
  %172 = getelementptr inbounds [100 x [100 x i8]], [100 x [100 x i8]]* %3, i64 0, i64 %171
  %173 = load i32, i32* %4, align 4
  %174 = sext i32 %173 to i64
  %175 = getelementptr inbounds [100 x i8], [100 x i8]* %172, i64 0, i64 %174
  store i8 32, i8* %175, align 1
  br label %176

176:                                              ; preds = %169, %162
  br label %177

177:                                              ; preds = %176, %145
  br label %178

178:                                              ; preds = %177
  %179 = load i32, i32* %4, align 4
  %180 = add nsw i32 %179, 1
  store i32 %180, i32* %4, align 4
  br label %125

181:                                              ; preds = %125
  br label %182

182:                                              ; preds = %181
  %183 = load i32, i32* %7, align 4
  %184 = add nsw i32 %183, 1
  store i32 %184, i32* %7, align 4
  br label %38

185:                                              ; preds = %38
  store i32 0, i32* %7, align 4
  br label %186

186:                                              ; preds = %205, %185
  %187 = load i32, i32* %7, align 4
  %188 = sext i32 %187 to i64
  %189 = getelementptr inbounds [100 x [100 x i8]], [100 x [100 x i8]]* %3, i64 0, i64 %188
  %190 = getelementptr inbounds [100 x i8], [100 x i8]* %189, i64 0, i64 0
  %191 = load i8, i8* %190, align 4
  %192 = sext i8 %191 to i32
  %193 = icmp ne i32 %192, 0
  br i1 %193, label %194, label %208

194:                                              ; preds = %186
  %195 = load i32, i32* %7, align 4
  %196 = sext i32 %195 to i64
  %197 = getelementptr inbounds [100 x [100 x i8]], [100 x [100 x i8]]* %2, i64 0, i64 %196
  %198 = getelementptr inbounds [100 x i8], [100 x i8]* %197, i64 0, i64 0
  %199 = call i32 @puts(i8* %198)
  %200 = load i32, i32* %7, align 4
  %201 = sext i32 %200 to i64
  %202 = getelementptr inbounds [100 x [100 x i8]], [100 x [100 x i8]]* %3, i64 0, i64 %201
  %203 = getelementptr inbounds [100 x i8], [100 x i8]* %202, i64 0, i64 0
  %204 = call i32 @puts(i8* %203)
  br label %205

205:                                              ; preds = %194
  %206 = load i32, i32* %7, align 4
  %207 = add nsw i32 %206, 1
  store i32 %207, i32* %7, align 4
  br label %186

208:                                              ; preds = %186
  ret i32 0
}

declare dso_local i32 @gets(...) #1

; Function Attrs: nounwind
declare dso_local i8* @strcpy(i8*, i8*) #2

; Function Attrs: nounwind readonly
declare dso_local i64 @strlen(i8*) #3

declare dso_local i32 @puts(i8*) #1


!llvm.module.flags = !{!0}
!llvm.ident = !{!1}

!0 = !{i32 1, !"wchar_size", i32 4}
!1 = !{!"clang version 10.0.0-4ubuntu1 "}
